; Function Attrs: mustprogress nofree norecurse nosync nounwind willreturn memory(argmem: read) uwtable
define hidden range(i32 0, 3) i32 @av1_get_pred_context_uni_comp_ref_p2(ptr nocapture noundef readonly %0) local_unnamed_addr #2 {
  %2 = getelementptr inbounds i8, ptr %0, i64 10637
  %3 = load i8, ptr %2, align 1
  %4 = getelementptr inbounds i8, ptr %0, i64 10638
  %5 = load i8, ptr %4, align 1
  %6 = icmp eq i8 %3, %5
  %7 = icmp ult i8 %3, %5
  %8 = select i1 %7, i32 0, i32 2
  %9 = select i1 %6, i32 1, i32 %8
  ret i32 %9
}